target datalayout = "e-m:e-p270:32:32-p271:32:32-p272:64:64-i64:64-i128:128-f80:128-n8:16:32:64-S128"
target triple = "x86_64-pc-linux-gnu"

%struct.BiquadsContext = type { ptr, i32, i32, i32, i32, i32, i32, i32, i32, double, double, double, double, ptr, %struct.AVChannelLayout, i32, i32, [3 x double], [3 x double], [3 x float], [3 x float], [3 x double], [3 x double], [3 x ptr], ptr, [2 x ptr], i32, i64, i32, ptr }
%struct.AVChannelLayout = type { i32, i32, %union.anon.1, ptr }
%union.anon.1 = type { i64 }

; Function Attrs: nounwind uwtable
define internal void @biquad_latt_s16(ptr noundef %0, ptr noundef %1, ptr noundef %2, i32 noundef %3, ptr noundef %4, ptr noundef %5, i32 noundef %6) #1 {
  %8 = alloca ptr, align 8
  %9 = alloca ptr, align 8
  %10 = alloca ptr, align 8
  %11 = alloca i32, align 4
  %12 = alloca ptr, align 8
  %13 = alloca ptr, align 8
  %14 = alloca i32, align 4
  %15 = alloca ptr, align 8
  %16 = alloca ptr, align 8
  %17 = alloca ptr, align 8
  %18 = alloca ptr, align 8
  %19 = alloca ptr, align 8
  %20 = alloca float, align 4
  %21 = alloca float, align 4
  %22 = alloca float, align 4
  %23 = alloca float, align 4
  %24 = alloca float, align 4
  %25 = alloca float, align 4
  %26 = alloca float, align 4
  %27 = alloca float, align 4
  %28 = alloca float, align 4
  %29 = alloca float, align 4
  %30 = alloca float, align 4
  %31 = alloca float, align 4
  %32 = alloca float, align 4
  %33 = alloca i32, align 4
  store ptr %0, ptr %8, align 8, !tbaa !22
  store ptr %1, ptr %9, align 8, !tbaa !36
  store ptr %2, ptr %10, align 8, !tbaa !36
  store i32 %3, ptr %11, align 4, !tbaa !31
  store ptr %4, ptr %12, align 8, !tbaa !36
  store ptr %5, ptr %13, align 8, !tbaa !82
  store i32 %6, ptr %14, align 4, !tbaa !31
  call void @llvm.lifetime.start.p0(i64 8, ptr %15) #11
  %34 = load ptr, ptr %9, align 8, !tbaa !36
  store ptr %34, ptr %15, align 8, !tbaa !83
  call void @llvm.lifetime.start.p0(i64 8, ptr %16) #11
  %35 = load ptr, ptr %10, align 8, !tbaa !36
  store ptr %35, ptr %16, align 8, !tbaa !83
  call void @llvm.lifetime.start.p0(i64 8, ptr %17) #11
  %36 = load ptr, ptr %12, align 8, !tbaa !36
  store ptr %36, ptr %17, align 8, !tbaa !85
  call void @llvm.lifetime.start.p0(i64 8, ptr %18) #11
  %37 = load ptr, ptr %8, align 8, !tbaa !22
  %38 = getelementptr inbounds nuw %struct.BiquadsContext, ptr %37, i32 0, i32 19
  %39 = getelementptr inbounds [3 x float], ptr %38, i64 0, i64 0
  store ptr %39, ptr %18, align 8, !tbaa !85
  call void @llvm.lifetime.start.p0(i64 8, ptr %19) #11
  %40 = load ptr, ptr %8, align 8, !tbaa !22
  %41 = getelementptr inbounds nuw %struct.BiquadsContext, ptr %40, i32 0, i32 20
  %42 = getelementptr inbounds [3 x float], ptr %41, i64 0, i64 0
  store ptr %42, ptr %19, align 8, !tbaa !85
  call void @llvm.lifetime.start.p0(i64 4, ptr %20) #11
  %43 = load ptr, ptr %18, align 8, !tbaa !85
  %44 = getelementptr inbounds float, ptr %43, i64 1
  %45 = load float, ptr %44, align 4, !tbaa !80
  store float %45, ptr %20, align 4, !tbaa !80
  call void @llvm.lifetime.start.p0(i64 4, ptr %21) #11
  %46 = load ptr, ptr %18, align 8, !tbaa !85
  %47 = getelementptr inbounds float, ptr %46, i64 2
  %48 = load float, ptr %47, align 4, !tbaa !80
  store float %48, ptr %21, align 4, !tbaa !80
  call void @llvm.lifetime.start.p0(i64 4, ptr %22) #11
  %49 = load ptr, ptr %19, align 8, !tbaa !85
  %50 = getelementptr inbounds float, ptr %49, i64 0
  %51 = load float, ptr %50, align 4, !tbaa !80
  store float %51, ptr %22, align 4, !tbaa !80
  call void @llvm.lifetime.start.p0(i64 4, ptr %23) #11
  %52 = load ptr, ptr %19, align 8, !tbaa !85
  %53 = getelementptr inbounds float, ptr %52, i64 1
  %54 = load float, ptr %53, align 4, !tbaa !80
  store float %54, ptr %23, align 4, !tbaa !80
  call void @llvm.lifetime.start.p0(i64 4, ptr %24) #11
  %55 = load ptr, ptr %19, align 8, !tbaa !85
  %56 = getelementptr inbounds float, ptr %55, i64 2
  %57 = load float, ptr %56, align 4, !tbaa !80
  store float %57, ptr %24, align 4, !tbaa !80
  call void @llvm.lifetime.start.p0(i64 4, ptr %25) #11
  %58 = load ptr, ptr %17, align 8, !tbaa !85
  %59 = getelementptr inbounds float, ptr %58, i64 0
  %60 = load float, ptr %59, align 4, !tbaa !80
  store float %60, ptr %25, align 4, !tbaa !80
  call void @llvm.lifetime.start.p0(i64 4, ptr %26) #11
  %61 = load ptr, ptr %17, align 8, !tbaa !85
  %62 = getelementptr inbounds float, ptr %61, i64 1
  %63 = load float, ptr %62, align 4, !tbaa !80
  store float %63, ptr %26, align 4, !tbaa !80
  call void @llvm.lifetime.start.p0(i64 4, ptr %27) #11
  %64 = load ptr, ptr %8, align 8, !tbaa !22
  %65 = getelementptr inbounds nuw %struct.BiquadsContext, ptr %64, i32 0, i32 12
  %66 = load double, ptr %65, align 8, !tbaa !87
  %67 = fptrunc nsz double %66 to float
  store float %67, ptr %27, align 4, !tbaa !80
  call void @llvm.lifetime.start.p0(i64 4, ptr %28) #11
  %68 = load float, ptr %27, align 4, !tbaa !80
  %69 = fpext nsz float %68 to double
  %70 = fsub nsz double 1.000000e+00, %69
  %71 = fptrunc nsz double %70 to float
  store float %71, ptr %28, align 4, !tbaa !80
  call void @llvm.lifetime.start.p0(i64 4, ptr %29) #11
  call void @llvm.lifetime.start.p0(i64 4, ptr %30) #11
  call void @llvm.lifetime.start.p0(i64 4, ptr %31) #11
  call void @llvm.lifetime.start.p0(i64 4, ptr %32) #11
  call void @llvm.lifetime.start.p0(i64 4, ptr %33) #11
  store i32 0, ptr %33, align 4, !tbaa !31
  br label %72

72:                                               ; preds = %163, %7
  %73 = load i32, ptr %33, align 4, !tbaa !31
  %74 = load i32, ptr %11, align 4, !tbaa !31
  %75 = icmp slt i32 %73, %74
  br i1 %75, label %77, label %76

76:                                               ; preds = %72
  call void @llvm.lifetime.end.p0(i64 4, ptr %33) #11
  br label %166

77:                                               ; preds = %72
  store float 0.000000e+00, ptr %30, align 4, !tbaa !80
  %78 = load ptr, ptr %15, align 8, !tbaa !83
  %79 = load i32, ptr %33, align 4, !tbaa !31
  %80 = sext i32 %79 to i64
  %81 = getelementptr inbounds i16, ptr %78, i64 %80
  %82 = load i16, ptr %81, align 2, !tbaa !88
  %83 = sitofp i16 %82 to float
  store float %83, ptr %29, align 4, !tbaa !80
  %84 = load float, ptr %29, align 4, !tbaa !80
  %85 = load float, ptr %21, align 4, !tbaa !80
  %86 = load float, ptr %25, align 4, !tbaa !80
  %87 = fneg nsz float %85
  %88 = call nsz float @llvm.fmuladd.f32(float %87, float %86, float %84)
  store float %88, ptr %31, align 4, !tbaa !80
  %89 = load float, ptr %31, align 4, !tbaa !80
  %90 = load float, ptr %21, align 4, !tbaa !80
  %91 = load float, ptr %25, align 4, !tbaa !80
  %92 = call nsz float @llvm.fmuladd.f32(float %89, float %90, float %91)
  store float %92, ptr %32, align 4, !tbaa !80
  %93 = load float, ptr %32, align 4, !tbaa !80
  %94 = load float, ptr %24, align 4, !tbaa !80
  %95 = load float, ptr %30, align 4, !tbaa !80
  %96 = call nsz float @llvm.fmuladd.f32(float %93, float %94, float %95)
  store float %96, ptr %30, align 4, !tbaa !80
  %97 = load float, ptr %31, align 4, !tbaa !80
  %98 = load float, ptr %20, align 4, !tbaa !80
  %99 = load float, ptr %26, align 4, !tbaa !80
  %100 = fneg nsz float %98
  %101 = call nsz float @llvm.fmuladd.f32(float %100, float %99, float %97)
  store float %101, ptr %31, align 4, !tbaa !80
  %102 = load float, ptr %31, align 4, !tbaa !80
  %103 = load float, ptr %20, align 4, !tbaa !80
  %104 = load float, ptr %26, align 4, !tbaa !80
  %105 = call nsz float @llvm.fmuladd.f32(float %102, float %103, float %104)
  store float %105, ptr %32, align 4, !tbaa !80
  %106 = load float, ptr %32, align 4, !tbaa !80
  %107 = load float, ptr %23, align 4, !tbaa !80
  %108 = load float, ptr %30, align 4, !tbaa !80
  %109 = call nsz float @llvm.fmuladd.f32(float %106, float %107, float %108)
  store float %109, ptr %30, align 4, !tbaa !80
  %110 = load float, ptr %31, align 4, !tbaa !80
  %111 = load float, ptr %22, align 4, !tbaa !80
  %112 = load float, ptr %30, align 4, !tbaa !80
  %113 = call nsz float @llvm.fmuladd.f32(float %110, float %111, float %112)
  store float %113, ptr %30, align 4, !tbaa !80
  %114 = load float, ptr %32, align 4, !tbaa !80
  store float %114, ptr %25, align 4, !tbaa !80
  %115 = load float, ptr %31, align 4, !tbaa !80
  store float %115, ptr %26, align 4, !tbaa !80
  %116 = load float, ptr %30, align 4, !tbaa !80
  %117 = load float, ptr %27, align 4, !tbaa !80
  %118 = load float, ptr %29, align 4, !tbaa !80
  %119 = load float, ptr %28, align 4, !tbaa !80
  %120 = fmul nsz float %118, %119
  %121 = call nsz float @llvm.fmuladd.f32(float %116, float %117, float %120)
  store float %121, ptr %30, align 4, !tbaa !80
  %122 = load i32, ptr %14, align 4, !tbaa !31
  %123 = icmp ne i32 %122, 0
  br i1 %123, label %124, label %131

124:                                              ; preds = %77
  %125 = load float, ptr %29, align 4, !tbaa !80
  %126 = fptosi float %125 to i16
  %127 = load ptr, ptr %16, align 8, !tbaa !83
  %128 = load i32, ptr %33, align 4, !tbaa !31
  %129 = sext i32 %128 to i64
  %130 = getelementptr inbounds i16, ptr %127, i64 %129
  store i16 %126, ptr %130, align 2, !tbaa !88
  br label %162

131:                                              ; preds = %77
  %132 = load float, ptr %30, align 4, !tbaa !80
  %133 = fcmp nsz olt float %132, -3.276800e+04
  br i1 %133, label %134, label %142

134:                                              ; preds = %131
  %135 = load ptr, ptr %13, align 8, !tbaa !82
  %136 = load i32, ptr %135, align 4, !tbaa !31
  %137 = add nsw i32 %136, 1
  store i32 %137, ptr %135, align 4, !tbaa !31
  %138 = load ptr, ptr %16, align 8, !tbaa !83
  %139 = load i32, ptr %33, align 4, !tbaa !31
  %140 = sext i32 %139 to i64
  %141 = getelementptr inbounds i16, ptr %138, i64 %140
  store i16 -32768, ptr %141, align 2, !tbaa !88
  br label %161

142:                                              ; preds = %131
  %143 = load float, ptr %30, align 4, !tbaa !80
  %144 = fcmp nsz ogt float %143, 3.276700e+04
  br i1 %144, label %145, label %153

145:                                              ; preds = %142
  %146 = load ptr, ptr %13, align 8, !tbaa !82
  %147 = load i32, ptr %146, align 4, !tbaa !31
  %148 = add nsw i32 %147, 1
  store i32 %148, ptr %146, align 4, !tbaa !31
  %149 = load ptr, ptr %16, align 8, !tbaa !83
  %150 = load i32, ptr %33, align 4, !tbaa !31
  %151 = sext i32 %150 to i64
  %152 = getelementptr inbounds i16, ptr %149, i64 %151
  store i16 32767, ptr %152, align 2, !tbaa !88
  br label %160

153:                                              ; preds = %142
  %154 = load float, ptr %30, align 4, !tbaa !80
  %155 = fptosi float %154 to i16
  %156 = load ptr, ptr %16, align 8, !tbaa !83
  %157 = load i32, ptr %33, align 4, !tbaa !31
  %158 = sext i32 %157 to i64
  %159 = getelementptr inbounds i16, ptr %156, i64 %158
  store i16 %155, ptr %159, align 2, !tbaa !88
  br label %160

160:                                              ; preds = %153, %145
  br label %161

161:                                              ; preds = %160, %134
  br label %162

162:                                              ; preds = %161, %124
  br label %163

163:                                              ; preds = %162
  %164 = load i32, ptr %33, align 4, !tbaa !31
  %165 = add nsw i32 %164, 1
  store i32 %165, ptr %33, align 4, !tbaa !31
  br label %72, !llvm.loop !107

166:                                              ; preds = %76
  %167 = load float, ptr %25, align 4, !tbaa !80
  %168 = load ptr, ptr %17, align 8, !tbaa !85
  %169 = getelementptr inbounds float, ptr %168, i64 0
  store float %167, ptr %169, align 4, !tbaa !80
  %170 = load float, ptr %26, align 4, !tbaa !80
  %171 = load ptr, ptr %17, align 8, !tbaa !85
  %172 = getelementptr inbounds float, ptr %171, i64 1
  store float %170, ptr %172, align 4, !tbaa !80
  call void @llvm.lifetime.end.p0(i64 4, ptr %32) #11
  call void @llvm.lifetime.end.p0(i64 4, ptr %31) #11
  call void @llvm.lifetime.end.p0(i64 4, ptr %30) #11
  call void @llvm.lifetime.end.p0(i64 4, ptr %29) #11
  call void @llvm.lifetime.end.p0(i64 4, ptr %28) #11
  call void @llvm.lifetime.end.p0(i64 4, ptr %27) #11
  call void @llvm.lifetime.end.p0(i64 4, ptr %26) #11
  call void @llvm.lifetime.end.p0(i64 4, ptr %25) #11
  call void @llvm.lifetime.end.p0(i64 4, ptr %24) #11
  call void @llvm.lifetime.end.p0(i64 4, ptr %23) #11
  call void @llvm.lifetime.end.p0(i64 4, ptr %22) #11
  call void @llvm.lifetime.end.p0(i64 4, ptr %21) #11
  call void @llvm.lifetime.end.p0(i64 4, ptr %20) #11
  call void @llvm.lifetime.end.p0(i64 8, ptr %19) #11
  call void @llvm.lifetime.end.p0(i64 8, ptr %18) #11
  call void @llvm.lifetime.end.p0(i64 8, ptr %17) #11
  call void @llvm.lifetime.end.p0(i64 8, ptr %16) #11
  call void @llvm.lifetime.end.p0(i64 8, ptr %15) #11
  ret void
}