; Function Attrs: nofree norecurse nosync nounwind memory(argmem: readwrite) uwtable
define internal void @biquad_latt_s16(ptr noundef readonly captures(none) %0, ptr noundef readonly captures(none) %1, ptr noundef writeonly captures(none) %2, i32 noundef %3, ptr noundef captures(none) %4, ptr noundef captures(none) %5, i32 noundef %6) #7 {
  %8 = getelementptr inbounds nuw i8, ptr %0, i64 172
  %9 = getelementptr inbounds nuw i8, ptr %0, i64 164
  %10 = load float, ptr %9, align 4, !tbaa !73
  %11 = getelementptr inbounds nuw i8, ptr %0, i64 168
  %12 = load float, ptr %11, align 4, !tbaa !73
  %13 = load float, ptr %8, align 4, !tbaa !73
  %14 = getelementptr inbounds nuw i8, ptr %0, i64 176
  %15 = load float, ptr %14, align 4, !tbaa !73
  %16 = getelementptr inbounds nuw i8, ptr %0, i64 180
  %17 = load float, ptr %16, align 4, !tbaa !73
  %18 = load float, ptr %4, align 4, !tbaa !73
  %19 = getelementptr inbounds nuw i8, ptr %4, i64 4
  %20 = load float, ptr %19, align 4, !tbaa !73
  %21 = getelementptr inbounds nuw i8, ptr %0, i64 64
  %22 = load double, ptr %21, align 8, !tbaa !75
  %23 = fptrunc nsz double %22 to float
  %24 = fsub nsz float 1.000000e+00, %23
  %25 = icmp sgt i32 %3, 0
  br i1 %25, label %.lr.ph, label %._crit_edge

.lr.ph:                                           ; preds = %7
  %26 = fneg nsz float %12
  %27 = fneg nsz float %10
  %.not = icmp eq i32 %6, 0
  %wide.trip.count80 = zext nneg i32 %3 to i64
  br i1 %.not, label %.lr.ph.split.us, label %.lr.ph.split

.lr.ph.split.us:                                  ; preds = %.lr.ph, %51
  %indvars.iv77 = phi i64 [ %indvars.iv.next78, %51 ], [ 0, %.lr.ph ]
  %.06468.us = phi float [ %35, %51 ], [ %18, %.lr.ph ]
  %.06567.us = phi float [ %34, %51 ], [ %20, %.lr.ph ]
  %28 = getelementptr inbounds nuw i16, ptr %1, i64 %indvars.iv77
  %29 = load i16, ptr %28, align 2, !tbaa !76
  %30 = sitofp i16 %29 to float
  %31 = tail call nsz float @llvm.fmuladd.f32(float %26, float %.06468.us, float %30)
  %32 = tail call nsz float @llvm.fmuladd.f32(float %31, float %12, float %.06468.us)
  %33 = fmul nsz float %17, %32
  %34 = tail call nsz float @llvm.fmuladd.f32(float %27, float %.06567.us, float %31)
  %35 = tail call nsz float @llvm.fmuladd.f32(float %34, float %10, float %.06567.us)
  %36 = tail call nsz float @llvm.fmuladd.f32(float %35, float %15, float %33)
  %37 = tail call nsz float @llvm.fmuladd.f32(float %34, float %13, float %36)
  %38 = fmul nsz float %24, %30
  %39 = tail call nsz float @llvm.fmuladd.f32(float %37, float %23, float %38)
  %40 = fcmp nsz olt float %39, -3.276800e+04
  br i1 %40, label %48, label %41

41:                                               ; preds = %.lr.ph.split.us
  %42 = fcmp nsz ogt float %39, 3.276700e+04
  br i1 %42, label %45, label %43

43:                                               ; preds = %41
  %44 = fptosi float %39 to i16
  br label %51

45:                                               ; preds = %41
  %46 = load i32, ptr %5, align 4, !tbaa !30
  %47 = add nsw i32 %46, 1
  store i32 %47, ptr %5, align 4, !tbaa !30
  br label %51

48:                                               ; preds = %.lr.ph.split.us
  %49 = load i32, ptr %5, align 4, !tbaa !30
  %50 = add nsw i32 %49, 1
  store i32 %50, ptr %5, align 4, !tbaa !30
  br label %51

51:                                               ; preds = %48, %45, %43
  %.sink = phi i16 [ -32768, %48 ], [ 32767, %45 ], [ %44, %43 ]
  %52 = getelementptr inbounds nuw i16, ptr %2, i64 %indvars.iv77
  store i16 %.sink, ptr %52, align 2, !tbaa !76
  %indvars.iv.next78 = add nuw nsw i64 %indvars.iv77, 1
  %exitcond81.not = icmp eq i64 %indvars.iv.next78, %wide.trip.count80
  br i1 %exitcond81.not, label %._crit_edge, label %.lr.ph.split.us, !llvm.loop !94

._crit_edge:                                      ; preds = %.lr.ph.split, %51, %7
  %.065.lcssa = phi float [ %20, %7 ], [ %34, %51 ], [ %57, %.lr.ph.split ]
  %.064.lcssa = phi float [ %18, %7 ], [ %35, %51 ], [ %58, %.lr.ph.split ]
  store float %.064.lcssa, ptr %4, align 4, !tbaa !73
  store float %.065.lcssa, ptr %19, align 4, !tbaa !73
  ret void

.lr.ph.split:                                     ; preds = %.lr.ph, %.lr.ph.split
  %indvars.iv = phi i64 [ %indvars.iv.next, %.lr.ph.split ], [ 0, %.lr.ph ]
  %.06468 = phi float [ %58, %.lr.ph.split ], [ %18, %.lr.ph ]
  %.06567 = phi float [ %57, %.lr.ph.split ], [ %20, %.lr.ph ]
  %53 = getelementptr inbounds nuw i16, ptr %1, i64 %indvars.iv
  %54 = load i16, ptr %53, align 2, !tbaa !76
  %55 = sitofp i16 %54 to float
  %56 = tail call nsz float @llvm.fmuladd.f32(float %26, float %.06468, float %55)
  %57 = tail call nsz float @llvm.fmuladd.f32(float %27, float %.06567, float %56)
  %58 = tail call nsz float @llvm.fmuladd.f32(float %57, float %10, float %.06567)
  %59 = getelementptr inbounds nuw i16, ptr %2, i64 %indvars.iv
  store i16 %54, ptr %59, align 2, !tbaa !76
  %indvars.iv.next = add nuw nsw i64 %indvars.iv, 1
  %exitcond.not = icmp eq i64 %indvars.iv.next, %wide.trip.count80
  br i1 %exitcond.not, label %._crit_edge, label %.lr.ph.split, !llvm.loop !94
}